target datalayout = "e-m:e-p270:32:32-p271:32:32-p272:64:64-i64:64-i128:128-f80:128-n8:16:32:64-S128"
target triple = "x86_64-pc-linux-gnu"

%struct.luaCtx = type { ptr, ptr, ptr, ptr, i64 }
%struct.luaScript = type { i64, ptr, ptr }
%struct.client = type { i64, i64, ptr, i8, i8, i8, i8, i32, ptr, ptr, ptr, ptr, ptr, i64, i64, i32, ptr, i32, i32, ptr, i64, ptr, ptr, ptr, ptr, ptr, i32, i32, i64, ptr, i64, ptr, i64, i64, i64, i32, ptr, i64, i64, i32, i32, i32, i32, i64, i64, ptr, i64, i64, i64, i64, i64, i64, i64, i64, [41 x i8], i32, ptr, i32, i32, i64, %struct.multiState, %struct.blockingState, i64, ptr, ptr, ptr, ptr, ptr, ptr, ptr, ptr, ptr, ptr, ptr, ptr, ptr, ptr, i64, ptr, i64, i32, ptr, ptr, ptr, i64, %struct.listNode, i64, i64, i32, i64, ptr }
%struct.multiState = type { ptr, i32, i32, i32, i64, i32 }
%struct.blockingState = type { i32, i64, i32, ptr, i32, i32, i64, ptr, ptr, i64 }
%struct.listNode = type { ptr, ptr, ptr }
%struct.sdshdr8 = type { i8, i8, i8, [0 x i8] }
%struct.sdshdr16 = type <{ i16, i16, i8, [0 x i8] }>
%struct.sdshdr32 = type <{ i32, i32, i8, [0 x i8] }>
%struct.sdshdr64 = type <{ i64, i64, i8, [0 x i8] }>
%struct.redisCommand = type { ptr, ptr, ptr, ptr, i32, ptr, ptr, i32, ptr, i32, ptr, i32, ptr, i32, i64, i64, ptr, i32, ptr, i32, ptr, ptr, i64, i64, i64, i64, i32, ptr, ptr, %struct.keySpec, ptr, ptr, ptr }
%struct.keySpec = type { ptr, i64, i32, %union.anon.1, i32, %union.anon.4 }
%union.anon.1 = type { %struct.anon.3 }
%struct.anon.3 = type { ptr, i32 }
%union.anon.4 = type { %struct.anon.5 }
%struct.anon.5 = type { i32, i32, i32 }
%struct.redisObject = type { i32, i32, ptr }

@lctx = dso_local global %struct.luaCtx zeroinitializer, align 8

; Function Attrs: inlinehint nounwind uwtable
define internal i64 @sdslen(ptr noundef %0) #6 {
  %2 = alloca i64, align 8
  %3 = alloca ptr, align 8
  %4 = alloca i8, align 1
  %5 = alloca i32, align 4
  store ptr %0, ptr %3, align 8, !tbaa !16
  call void @llvm.lifetime.start.p0(i64 1, ptr %4) #14
  %6 = load ptr, ptr %3, align 8, !tbaa !16
  %7 = getelementptr inbounds i8, ptr %6, i64 -1
  %8 = load i8, ptr %7, align 1, !tbaa !21
  store i8 %8, ptr %4, align 1, !tbaa !21
  %9 = load i8, ptr %4, align 1, !tbaa !21
  %10 = zext i8 %9 to i32
  %11 = and i32 %10, 7
  switch i32 %11, label %40 [
    i32 0, label %12
    i32 1, label %17
    i32 2, label %23
    i32 3, label %29
    i32 4, label %35
  ]

12:                                               ; preds = %1
  %13 = load i8, ptr %4, align 1, !tbaa !21
  %14 = zext i8 %13 to i32
  %15 = ashr i32 %14, 3
  %16 = sext i32 %15 to i64
  store i64 %16, ptr %2, align 8
  store i32 1, ptr %5, align 4
  br label %41

17:                                               ; preds = %1
  %18 = load ptr, ptr %3, align 8, !tbaa !16
  %19 = getelementptr inbounds i8, ptr %18, i64 -3
  %20 = getelementptr inbounds nuw %struct.sdshdr8, ptr %19, i32 0, i32 0
  %21 = load i8, ptr %20, align 1, !tbaa !21
  %22 = zext i8 %21 to i64
  store i64 %22, ptr %2, align 8
  store i32 1, ptr %5, align 4
  br label %41

23:                                               ; preds = %1
  %24 = load ptr, ptr %3, align 8, !tbaa !16
  %25 = getelementptr inbounds i8, ptr %24, i64 -5
  %26 = getelementptr inbounds nuw %struct.sdshdr16, ptr %25, i32 0, i32 0
  %27 = load i16, ptr %26, align 1, !tbaa !109
  %28 = zext i16 %27 to i64
  store i64 %28, ptr %2, align 8
  store i32 1, ptr %5, align 4
  br label %41

29:                                               ; preds = %1
  %30 = load ptr, ptr %3, align 8, !tbaa !16
  %31 = getelementptr inbounds i8, ptr %30, i64 -9
  %32 = getelementptr inbounds nuw %struct.sdshdr32, ptr %31, i32 0, i32 0
  %33 = load i32, ptr %32, align 1, !tbaa !19
  %34 = zext i32 %33 to i64
  store i64 %34, ptr %2, align 8
  store i32 1, ptr %5, align 4
  br label %41

35:                                               ; preds = %1
  %36 = load ptr, ptr %3, align 8, !tbaa !16
  %37 = getelementptr inbounds i8, ptr %36, i64 -17
  %38 = getelementptr inbounds nuw %struct.sdshdr64, ptr %37, i32 0, i32 0
  %39 = load i64, ptr %38, align 1, !tbaa !18
  store i64 %39, ptr %2, align 8
  store i32 1, ptr %5, align 4
  br label %41

40:                                               ; preds = %1
  store i64 0, ptr %2, align 8
  store i32 1, ptr %5, align 4
  br label %41

41:                                               ; preds = %40, %35, %29, %23, %17, %12
  call void @llvm.lifetime.end.p0(i64 1, ptr %4) #14
  %42 = load i64, ptr %2, align 8
  ret i64 %42
}

; Function Attrs: nounwind uwtable
define dso_local i64 @evalGetCommandFlags(ptr noundef %0, i64 noundef %1) #0 {
  %3 = alloca i64, align 8
  %4 = alloca ptr, align 8
  %5 = alloca i64, align 8
  %6 = alloca [43 x i8], align 16
  %7 = alloca i32, align 4
  %8 = alloca i32, align 4
  %9 = alloca i64, align 8
  %10 = alloca ptr, align 8
  %11 = alloca ptr, align 8
  store ptr %0, ptr %4, align 8, !tbaa !110
  store i64 %1, ptr %5, align 8, !tbaa !18
  call void @llvm.lifetime.start.p0(i64 43, ptr %6) #14
  call void @llvm.lifetime.start.p0(i64 4, ptr %7) #14
  %12 = load ptr, ptr %4, align 8, !tbaa !110
  %13 = getelementptr inbounds nuw %struct.client, ptr %12, i32 0, i32 21
  %14 = load ptr, ptr %13, align 8, !tbaa !111
  %15 = getelementptr inbounds nuw %struct.redisCommand, ptr %14, i32 0, i32 12
  %16 = load ptr, ptr %15, align 8, !tbaa !112
  %17 = icmp eq ptr %16, @evalShaCommand
  br i1 %17, label %25, label %18

18:                                               ; preds = %2
  %19 = load ptr, ptr %4, align 8, !tbaa !110
  %20 = getelementptr inbounds nuw %struct.client, ptr %19, i32 0, i32 21
  %21 = load ptr, ptr %20, align 8, !tbaa !111
  %22 = getelementptr inbounds nuw %struct.redisCommand, ptr %21, i32 0, i32 12
  %23 = load ptr, ptr %22, align 8, !tbaa !112
  %24 = icmp eq ptr %23, @evalShaRoCommand
  br label %25

25:                                               ; preds = %18, %2
  %26 = phi i1 [ true, %2 ], [ %24, %18 ]
  %27 = zext i1 %26 to i32
  store i32 %27, ptr %7, align 4, !tbaa !19
  %28 = load i32, ptr %7, align 4, !tbaa !19
  %29 = icmp ne i32 %28, 0
  br i1 %29, label %30, label %42

30:                                               ; preds = %25
  %31 = load ptr, ptr %4, align 8, !tbaa !110
  %32 = getelementptr inbounds nuw %struct.client, ptr %31, i32 0, i32 16
  %33 = load ptr, ptr %32, align 8, !tbaa !118
  %34 = getelementptr inbounds ptr, ptr %33, i64 1
  %35 = load ptr, ptr %34, align 8, !tbaa !119
  %36 = getelementptr inbounds nuw %struct.redisObject, ptr %35, i32 0, i32 2
  %37 = load ptr, ptr %36, align 8, !tbaa !120
  %38 = call i64 @sdslen(ptr noundef %37)
  %39 = icmp ne i64 %38, 40
  br i1 %39, label %40, label %42

40:                                               ; preds = %30
  %41 = load i64, ptr %5, align 8, !tbaa !18
  store i64 %41, ptr %3, align 8
  store i32 1, ptr %8, align 4
  br label %100

42:                                               ; preds = %30, %25
  call void @llvm.lifetime.start.p0(i64 8, ptr %9) #14
  %43 = load i32, ptr %7, align 4, !tbaa !19
  %44 = load ptr, ptr %4, align 8, !tbaa !110
  %45 = getelementptr inbounds nuw %struct.client, ptr %44, i32 0, i32 16
  %46 = load ptr, ptr %45, align 8, !tbaa !118
  %47 = getelementptr inbounds ptr, ptr %46, i64 1
  %48 = load ptr, ptr %47, align 8, !tbaa !119
  %49 = getelementptr inbounds nuw %struct.redisObject, ptr %48, i32 0, i32 2
  %50 = load ptr, ptr %49, align 8, !tbaa !120
  %51 = getelementptr inbounds [43 x i8], ptr %6, i64 0, i64 0
  call void @evalCalcFunctionName(i32 noundef %43, ptr noundef %50, ptr noundef %51)
  call void @llvm.lifetime.start.p0(i64 8, ptr %10) #14
  %52 = getelementptr inbounds [43 x i8], ptr %6, i64 0, i64 0
  %53 = getelementptr inbounds i8, ptr %52, i64 2
  store ptr %53, ptr %10, align 8, !tbaa !16
  %54 = load ptr, ptr getelementptr inbounds nuw (%struct.luaCtx, ptr @lctx, i32 0, i32 2), align 8, !tbaa !61
  %55 = load ptr, ptr %10, align 8, !tbaa !16
  %56 = call ptr @dictFind(ptr noundef %54, ptr noundef %55)
  %57 = load ptr, ptr %4, align 8, !tbaa !110
  %58 = getelementptr inbounds nuw %struct.client, ptr %57, i32 0, i32 36
  store ptr %56, ptr %58, align 8, !tbaa !122
  %59 = load ptr, ptr %4, align 8, !tbaa !110
  %60 = getelementptr inbounds nuw %struct.client, ptr %59, i32 0, i32 36
  %61 = load ptr, ptr %60, align 8, !tbaa !122
  %62 = icmp ne ptr %61, null
  br i1 %62, label %81, label %63

63:                                               ; preds = %42
  %64 = load i32, ptr %7, align 4, !tbaa !19
  %65 = icmp ne i32 %64, 0
  br i1 %65, label %66, label %68

66:                                               ; preds = %63
  %67 = load i64, ptr %5, align 8, !tbaa !18
  store i64 %67, ptr %3, align 8
  store i32 1, ptr %8, align 4
  br label %99

68:                                               ; preds = %63
  %69 = load ptr, ptr %4, align 8, !tbaa !110
  %70 = getelementptr inbounds nuw %struct.client, ptr %69, i32 0, i32 16
  %71 = load ptr, ptr %70, align 8, !tbaa !118
  %72 = getelementptr inbounds ptr, ptr %71, i64 1
  %73 = load ptr, ptr %72, align 8, !tbaa !119
  %74 = getelementptr inbounds nuw %struct.redisObject, ptr %73, i32 0, i32 2
  %75 = load ptr, ptr %74, align 8, !tbaa !120
  %76 = call i32 @evalExtractShebangFlags(ptr noundef %75, ptr noundef %9, ptr noundef null, ptr noundef null)
  %77 = icmp eq i32 %76, -1
  br i1 %77, label %78, label %80

78:                                               ; preds = %68
  %79 = load i64, ptr %5, align 8, !tbaa !18
  store i64 %79, ptr %3, align 8
  store i32 1, ptr %8, align 4
  br label %99

80:                                               ; preds = %68
  br label %89

81:                                               ; preds = %42
  call void @llvm.lifetime.start.p0(i64 8, ptr %11) #14
  %82 = load ptr, ptr %4, align 8, !tbaa !110
  %83 = getelementptr inbounds nuw %struct.client, ptr %82, i32 0, i32 36
  %84 = load ptr, ptr %83, align 8, !tbaa !122
  %85 = call ptr @dictGetVal(ptr noundef %84)
  store ptr %85, ptr %11, align 8, !tbaa !123
  %86 = load ptr, ptr %11, align 8, !tbaa !123
  %87 = getelementptr inbounds nuw %struct.luaScript, ptr %86, i32 0, i32 0
  %88 = load i64, ptr %87, align 8, !tbaa !125
  store i64 %88, ptr %9, align 8, !tbaa !18
  call void @llvm.lifetime.end.p0(i64 8, ptr %11) #14
  br label %89

89:                                               ; preds = %81, %80
  %90 = load i64, ptr %9, align 8, !tbaa !18
  %91 = and i64 %90, 16
  %92 = icmp ne i64 %91, 0
  br i1 %92, label %93, label %95

93:                                               ; preds = %89
  %94 = load i64, ptr %5, align 8, !tbaa !18
  store i64 %94, ptr %3, align 8
  store i32 1, ptr %8, align 4
  br label %99

95:                                               ; preds = %89
  %96 = load i64, ptr %5, align 8, !tbaa !18
  %97 = load i64, ptr %9, align 8, !tbaa !18
  %98 = call i64 @scriptFlagsToCmdFlags(i64 noundef %96, i64 noundef %97)
  store i64 %98, ptr %3, align 8
  store i32 1, ptr %8, align 4
  br label %99

99:                                               ; preds = %95, %93, %78, %66
  call void @llvm.lifetime.end.p0(i64 8, ptr %10) #14
  call void @llvm.lifetime.end.p0(i64 8, ptr %9) #14
  br label %100

100:                                              ; preds = %99, %40
  call void @llvm.lifetime.end.p0(i64 4, ptr %7) #14
  call void @llvm.lifetime.end.p0(i64 43, ptr %6) #14
  %101 = load i64, ptr %3, align 8
  ret i64 %101
}