; Function Attrs: nounwind uwtable
define dso_local i64 @evalGetCommandFlags(ptr noundef captures(none) %0, i64 noundef %1) local_unnamed_addr #0 {
  %3 = alloca [43 x i8], align 16
  %4 = alloca i64, align 8
  call void @llvm.lifetime.start.p0(i64 43, ptr nonnull %3) #19
  %5 = getelementptr inbounds nuw i8, ptr %0, i64 128
  %6 = load ptr, ptr %5, align 8, !tbaa !101
  %7 = getelementptr inbounds nuw i8, ptr %6, i64 96
  %8 = load ptr, ptr %7, align 8, !tbaa !102
  %9 = icmp eq ptr %8, @evalShaCommand
  %10 = icmp eq ptr %8, @evalShaRoCommand
  %spec.select = or i1 %9, %10
  %11 = zext i1 %spec.select to i32
  %12 = getelementptr inbounds nuw i8, ptr %0, i64 96
  %13 = load ptr, ptr %12, align 8, !tbaa !108
  %14 = getelementptr inbounds nuw i8, ptr %13, i64 8
  %15 = load ptr, ptr %14, align 8, !tbaa !109
  %16 = getelementptr inbounds nuw i8, ptr %15, i64 8
  %17 = load ptr, ptr %16, align 8, !tbaa !110
  br i1 %spec.select, label %18, label %._crit_edge

18:                                               ; preds = %2
  %19 = getelementptr inbounds i8, ptr %17, i64 -1
  %20 = load i8, ptr %19, align 1, !tbaa !13
  %21 = and i8 %20, 7
  switch i8 %21, label %sdslen.exit.thread [
    i8 4, label %34
    i8 1, label %22
    i8 2, label %26
    i8 3, label %30
  ]

22:                                               ; preds = %18
  %23 = getelementptr inbounds i8, ptr %17, i64 -3
  %24 = load i8, ptr %23, align 1, !tbaa !13
  %25 = zext i8 %24 to i64
  br label %sdslen.exit

26:                                               ; preds = %18
  %27 = getelementptr inbounds i8, ptr %17, i64 -5
  %28 = load i16, ptr %27, align 1, !tbaa !94
  %29 = zext i16 %28 to i64
  br label %sdslen.exit

30:                                               ; preds = %18
  %31 = getelementptr inbounds i8, ptr %17, i64 -9
  %32 = load i32, ptr %31, align 1, !tbaa !91
  %33 = zext i32 %32 to i64
  br label %sdslen.exit

34:                                               ; preds = %18
  %35 = getelementptr inbounds i8, ptr %17, i64 -17
  %36 = load i64, ptr %35, align 1, !tbaa !95
  br label %sdslen.exit

sdslen.exit:                                      ; preds = %22, %26, %30, %34
  %.0.i = phi i64 [ %36, %34 ], [ %33, %30 ], [ %29, %26 ], [ %25, %22 ]
  %.not = icmp eq i64 %.0.i, 40
  br i1 %.not, label %._crit_edge, label %sdslen.exit.thread

._crit_edge:                                      ; preds = %2, %sdslen.exit
  call void @llvm.lifetime.start.p0(i64 8, ptr nonnull %4) #19
  %37 = getelementptr inbounds nuw i8, ptr %0, i64 96
  call fastcc void @evalCalcFunctionName(i32 noundef %11, ptr noundef %17, ptr noundef %3)
  %38 = getelementptr inbounds nuw i8, ptr %3, i64 2
  %39 = load ptr, ptr getelementptr inbounds nuw (i8, ptr @lctx, i64 16), align 8, !tbaa !62
  %40 = call ptr @dictFind(ptr noundef %39, ptr noundef nonnull %38) #19
  %41 = getelementptr inbounds nuw i8, ptr %0, i64 240
  store ptr %40, ptr %41, align 8, !tbaa !112
  %.not20 = icmp eq ptr %40, null
  br i1 %.not20, label %42, label %51

42:                                               ; preds = %._crit_edge
  br i1 %spec.select, label %56, label %43

43:                                               ; preds = %42
  %44 = load ptr, ptr %37, align 8, !tbaa !108
  %45 = getelementptr inbounds nuw i8, ptr %44, i64 8
  %46 = load ptr, ptr %45, align 8, !tbaa !109
  %47 = getelementptr inbounds nuw i8, ptr %46, i64 8
  %48 = load ptr, ptr %47, align 8, !tbaa !110
  %49 = call i32 @evalExtractShebangFlags(ptr noundef %48, ptr noundef nonnull %4, ptr noundef null, ptr noundef null)
  %50 = icmp eq i32 %49, -1
  br i1 %50, label %56, label %._crit_edge28

51:                                               ; preds = %._crit_edge
  %52 = call ptr @dictGetVal(ptr noundef nonnull %40) #19
  br label %._crit_edge28

._crit_edge28:                                    ; preds = %43, %51
  %.sink = phi ptr [ %52, %51 ], [ %4, %43 ]
  %.pre29 = load i64, ptr %.sink, align 8, !tbaa !95
  %53 = and i64 %.pre29, 16
  %.not21 = icmp eq i64 %53, 0
  br i1 %.not21, label %54, label %56

54:                                               ; preds = %._crit_edge28
  %55 = call i64 @scriptFlagsToCmdFlags(i64 noundef %1, i64 noundef %.pre29) #19
  br label %56

56:                                               ; preds = %._crit_edge28, %43, %42, %54
  %.1 = phi i64 [ %55, %54 ], [ %1, %42 ], [ %1, %43 ], [ %1, %._crit_edge28 ]
  call void @llvm.lifetime.end.p0(i64 8, ptr nonnull %4) #19
  br label %sdslen.exit.thread

sdslen.exit.thread:                               ; preds = %18, %sdslen.exit, %56
  %.0 = phi i64 [ %.1, %56 ], [ %1, %sdslen.exit ], [ %1, %18 ]
  call void @llvm.lifetime.end.p0(i64 43, ptr nonnull %3) #19
  ret i64 %.0
}